target datalayout = "e-m:e-p270:32:32-p271:32:32-p272:64:64-i64:64-i128:128-f80:128-n8:16:32:64-S128"
target triple = "x86_64-pc-linux-gnu"

@pages_can_purge_lazy_runtime = internal global i8 1, align 1

; Function Attrs: nounwind uwtable
define zeroext i1 @duckdb_je_pages_purge_lazy(ptr noundef %0, i64 noundef %1) #0 {
  %3 = alloca i1, align 1
  %4 = alloca ptr, align 8
  %5 = alloca i64, align 8
  store ptr %0, ptr %4, align 8, !tbaa !3
  store i64 %1, ptr %5, align 8, !tbaa !7
  br label %6

6:                                                ; preds = %2
  br label %7

7:                                                ; preds = %6
  br label %8

8:                                                ; preds = %7
  br label %9

9:                                                ; preds = %8
  %10 = load i8, ptr @pages_can_purge_lazy_runtime, align 1, !tbaa !11, !range !13, !noundef !14
  %11 = trunc i8 %10 to i1
  br i1 %11, label %13, label %12

12:                                               ; preds = %9
  store i1 true, ptr %3, align 1
  br label %18

13:                                               ; preds = %9
  %14 = load ptr, ptr %4, align 8, !tbaa !3
  %15 = load i64, ptr %5, align 8, !tbaa !7
  %16 = call i32 @madvise(ptr noundef %14, i64 noundef %15, i32 noundef 8) #11
  %17 = icmp ne i32 %16, 0
  store i1 %17, ptr %3, align 1
  br label %18

18:                                               ; preds = %13, %12
  %19 = load i1, ptr %3, align 1
  ret i1 %19
}